target datalayout = "e-m:e-p270:32:32-p271:32:32-p272:64:64-i64:64-i128:128-f80:128-n8:16:32:64-S128"
target triple = "x86_64-pc-linux-gnu"

%"class.std::__cxx11::basic_string" = type { %"struct.std::__cxx11::basic_string<char>::_Alloc_hider", i64, %union.anon }
%"struct.std::__cxx11::basic_string<char>::_Alloc_hider" = type { ptr }
%union.anon = type { i64, [8 x i8] }
%"struct.faiss::IndexBinary" = type { ptr, i32, i32, i64, i8, i8, i32 }

@_ZTIN5faiss14FaissExceptionE = external constant ptr
@.str.11 = private unnamed_addr constant [19 x i8] c"Error: '%s' failed\00", align 1
@.str.13 = private unnamed_addr constant [113 x i8] c"generated/home/dtcxzyw/WorkSpace/Projects/compilers/llvm-opt-benchmark/bench/faiss/faiss/faiss/IndexReplicas.cpp\00", align 1
@.str.33 = private unnamed_addr constant [18 x i8] c"index->d % 8 == 0\00", align 1
@__PRETTY_FUNCTION__._ZN5faiss12_GLOBAL__N_16sync_dEPNS_11IndexBinaryE = private unnamed_addr constant [57 x i8] c"void faiss::(anonymous namespace)::sync_d(IndexBinary *)\00", align 1

; Function Attrs: mustprogress uwtable
define internal void @_ZN5faiss12_GLOBAL__N_16sync_dEPNS_11IndexBinaryE(ptr noundef %0) #1 personality ptr @__gxx_personality_v0 {
  %2 = alloca ptr, align 8
  %3 = alloca %"class.std::__cxx11::basic_string", align 8
  %4 = alloca i32, align 4
  %5 = alloca ptr, align 8
  %6 = alloca i32, align 4
  store ptr %0, ptr %2, align 8
  br label %7

7:                                                ; preds = %1
  %8 = load ptr, ptr %2, align 8
  %9 = getelementptr inbounds %"struct.faiss::IndexBinary", ptr %8, i32 0, i32 1
  %10 = load i32, ptr %9, align 8
  %11 = srem i32 %10, 8
  %12 = icmp eq i32 %11, 0
  br i1 %12, label %36, label %13

13:                                               ; preds = %7
  br label %14

14:                                               ; preds = %13
  call void @_ZNSt7__cxx1112basic_stringIcSt11char_traitsIcESaIcEEC1Ev(ptr noundef nonnull align 8 dereferenceable(32) %3) #5
  %15 = call i32 (ptr, i64, ptr, ...) @snprintf(ptr noundef null, i64 noundef 0, ptr noundef @.str.11, ptr noundef @.str.33) #5
  store i32 %15, ptr %4, align 4
  %16 = load i32, ptr %4, align 4
  %17 = add nsw i32 %16, 1
  %18 = sext i32 %17 to i64
  invoke void @_ZNSt7__cxx1112basic_stringIcSt11char_traitsIcESaIcEE6resizeEm(ptr noundef nonnull align 8 dereferenceable(32) %3, i64 noundef %18)
          to label %19 unwind label %26

19:                                               ; preds = %14
  %20 = invoke noundef nonnull align 1 dereferenceable(1) ptr @_ZNSt7__cxx1112basic_stringIcSt11char_traitsIcESaIcEEixEm(ptr noundef nonnull align 8 dereferenceable(32) %3, i64 noundef 0)
          to label %21 unwind label %26

21:                                               ; preds = %19
  %22 = call noundef i64 @_ZNKSt7__cxx1112basic_stringIcSt11char_traitsIcESaIcEE4sizeEv(ptr noundef nonnull align 8 dereferenceable(32) %3) #5
  %23 = call i32 (ptr, i64, ptr, ...) @snprintf(ptr noundef %20, i64 noundef %22, ptr noundef @.str.11, ptr noundef @.str.33) #5
  %24 = call ptr @__cxa_allocate_exception(i64 40) #5
  invoke void @_ZN5faiss14FaissExceptionC1ERKNSt7__cxx1112basic_stringIcSt11char_traitsIcESaIcEEEPKcSA_i(ptr noundef nonnull align 8 dereferenceable(40) %24, ptr noundef nonnull align 8 dereferenceable(32) %3, ptr noundef @__PRETTY_FUNCTION__._ZN5faiss12_GLOBAL__N_16sync_dEPNS_11IndexBinaryE, ptr noundef @.str.13, i32 noundef 22)
          to label %25 unwind label %30

25:                                               ; preds = %21
  invoke void @__cxa_throw(ptr %24, ptr @_ZTIN5faiss14FaissExceptionE, ptr @_ZN5faiss14FaissExceptionD2Ev) #15
          to label %49 unwind label %26

26:                                               ; preds = %25, %19, %14
  %27 = landingpad { ptr, i32 }
          cleanup
  %28 = extractvalue { ptr, i32 } %27, 0
  store ptr %28, ptr %5, align 8
  %29 = extractvalue { ptr, i32 } %27, 1
  store i32 %29, ptr %6, align 4
  br label %34

30:                                               ; preds = %21
  %31 = landingpad { ptr, i32 }
          cleanup
  %32 = extractvalue { ptr, i32 } %31, 0
  store ptr %32, ptr %5, align 8
  %33 = extractvalue { ptr, i32 } %31, 1
  store i32 %33, ptr %6, align 4
  call void @__cxa_free_exception(ptr %24) #5
  br label %34

34:                                               ; preds = %30, %26
  call void @_ZNSt7__cxx1112basic_stringIcSt11char_traitsIcESaIcEED1Ev(ptr noundef nonnull align 8 dereferenceable(32) %3) #5
  br label %44

35:                                               ; No predecessors!
  br label %36

36:                                               ; preds = %35, %7
  br label %37

37:                                               ; preds = %36
  %38 = load ptr, ptr %2, align 8
  %39 = getelementptr inbounds %"struct.faiss::IndexBinary", ptr %38, i32 0, i32 1
  %40 = load i32, ptr %39, align 8
  %41 = sdiv i32 %40, 8
  %42 = load ptr, ptr %2, align 8
  %43 = getelementptr inbounds %"struct.faiss::IndexBinary", ptr %42, i32 0, i32 2
  store i32 %41, ptr %43, align 4
  ret void

44:                                               ; preds = %34
  %45 = load ptr, ptr %5, align 8
  %46 = load i32, ptr %6, align 4
  %47 = insertvalue { ptr, i32 } poison, ptr %45, 0
  %48 = insertvalue { ptr, i32 } %47, i32 %46, 1
  resume { ptr, i32 } %48

49:                                               ; preds = %25
  unreachable
}