; Function Attrs: mustprogress uwtable
define internal fastcc void @_ZN5faiss12_GLOBAL__N_16sync_dEPNS_11IndexBinaryE(ptr nocapture noundef %0) unnamed_addr #1 personality ptr @__gxx_personality_v0 {
  %2 = alloca %"class.std::__cxx11::basic_string", align 8
  %3 = getelementptr inbounds i8, ptr %0, i64 8
  %4 = load i32, ptr %3, align 8
  %5 = and i32 %4, 7
  %6 = icmp eq i32 %5, 0
  br i1 %6, label %23, label %7

7:                                                ; preds = %1
  call void @_ZNSt7__cxx1112basic_stringIcSt11char_traitsIcESaIcEEC1Ev(ptr noundef nonnull align 8 dereferenceable(32) %2) #19
  %8 = call i32 (ptr, i64, ptr, ...) @snprintf(ptr noundef null, i64 noundef 0, ptr noundef nonnull @.str.11, ptr noundef nonnull @.str.33) #19
  %9 = add nsw i32 %8, 1
  %10 = sext i32 %9 to i64
  invoke void @_ZNSt7__cxx1112basic_stringIcSt11char_traitsIcESaIcEE6resizeEm(ptr noundef nonnull align 8 dereferenceable(32) %2, i64 noundef %10)
          to label %11 unwind label %18

11:                                               ; preds = %7
  %12 = invoke noundef nonnull align 1 dereferenceable(1) ptr @_ZNSt7__cxx1112basic_stringIcSt11char_traitsIcESaIcEEixEm(ptr noundef nonnull align 8 dereferenceable(32) %2, i64 noundef 0)
          to label %13 unwind label %18

13:                                               ; preds = %11
  %14 = call noundef i64 @_ZNKSt7__cxx1112basic_stringIcSt11char_traitsIcESaIcEE4sizeEv(ptr noundef nonnull align 8 dereferenceable(32) %2) #19
  %15 = call i32 (ptr, i64, ptr, ...) @snprintf(ptr noundef nonnull %12, i64 noundef %14, ptr noundef nonnull @.str.11, ptr noundef nonnull @.str.33) #19
  %16 = call ptr @__cxa_allocate_exception(i64 40) #19
  invoke void @_ZN5faiss14FaissExceptionC1ERKNSt7__cxx1112basic_stringIcSt11char_traitsIcESaIcEEEPKcSA_i(ptr noundef nonnull align 8 dereferenceable(40) %16, ptr noundef nonnull align 8 dereferenceable(32) %2, ptr noundef nonnull @__PRETTY_FUNCTION__._ZN5faiss12_GLOBAL__N_16sync_dEPNS_11IndexBinaryE, ptr noundef nonnull @.str.13, i32 noundef 22)
          to label %17 unwind label %20

17:                                               ; preds = %13
  invoke void @__cxa_throw(ptr nonnull %16, ptr nonnull @_ZTIN5faiss14FaissExceptionE, ptr nonnull @_ZN5faiss14FaissExceptionD2Ev) #22
          to label %26 unwind label %18

18:                                               ; preds = %17, %11, %7
  %19 = landingpad { ptr, i32 }
          cleanup
  br label %22

20:                                               ; preds = %13
  %21 = landingpad { ptr, i32 }
          cleanup
  call void @__cxa_free_exception(ptr %16) #19
  br label %22

22:                                               ; preds = %20, %18
  %.pn = phi { ptr, i32 } [ %19, %18 ], [ %21, %20 ]
  call void @_ZNSt7__cxx1112basic_stringIcSt11char_traitsIcESaIcEED1Ev(ptr noundef nonnull align 8 dereferenceable(32) %2) #19
  resume { ptr, i32 } %.pn

23:                                               ; preds = %1
  %24 = ashr exact i32 %4, 3
  %25 = getelementptr inbounds i8, ptr %0, i64 12
  store i32 %24, ptr %25, align 4
  ret void

26:                                               ; preds = %17
  unreachable
}